; Function Attrs: nounwind uwtable
define internal void @CleanupHintProperty(ptr readnone captures(none) %0, ptr noundef %1) #1 {
  %3 = load ptr, ptr %1, align 8
  tail call void @SDL_free_REAL(ptr noundef %3) #3
  %4 = getelementptr inbounds nuw i8, ptr %1, i64 16
  %5 = load ptr, ptr %4, align 8
  %.not8 = icmp eq ptr %5, null
  br i1 %.not8, label %._crit_edge, label %.lr.ph

.lr.ph:                                           ; preds = %2, %.lr.ph
  %.09 = phi ptr [ %7, %.lr.ph ], [ %5, %2 ]
  %6 = getelementptr inbounds nuw i8, ptr %.09, i64 16
  %7 = load ptr, ptr %6, align 8
  tail call void @SDL_free_REAL(ptr noundef nonnull %.09) #3
  %.not = icmp eq ptr %7, null
  br i1 %.not, label %._crit_edge, label %.lr.ph, !llvm.loop !6

._crit_edge:                                      ; preds = %.lr.ph, %2
  tail call void @SDL_free_REAL(ptr noundef nonnull %1) #3
  ret void
}